target datalayout = "e-m:e-p270:32:32-p271:32:32-p272:64:64-i64:64-i128:128-f80:128-n8:16:32:64-S128"
target triple = "x86_64-pc-linux-gnu"

%struct._zend_array = type { %struct._zend_refcounted_h, %union.anon.4, i32, %union.anon.6, i32, i32, i32, i32, i64, ptr }
%struct._zend_refcounted_h = type { i32, %union.anon.3 }
%union.anon.3 = type { i32 }
%union.anon.4 = type { i32 }
%union.anon.6 = type { ptr }
%struct.stat = type { i64, i64, i64, i32, i32, i32, i32, i64, i64, i64, i64, %struct.timespec, %struct.timespec, %struct.timespec, [3 x i64] }
%struct.timespec = type { i64, i64 }
%struct.php_cli_server_client = type { ptr, i32, ptr, i32, ptr, %struct.php_http_parser, i8, ptr, ptr, i32, i64, %struct.php_cli_server_request, i8, %struct.php_cli_server_content_sender, i32 }
%struct.php_http_parser = type { i8, i8, i8, i8, i32, i64, i16, i16, i16, i8, i8, ptr }
%struct.php_cli_server_request = type { i32, i32, ptr, ptr, i64, ptr, i64, ptr, i64, ptr, i64, %struct._zend_array, %struct._zend_array, ptr, i64, ptr, i64, %struct.stat }
%struct.php_cli_server_content_sender = type { %struct.php_cli_server_buffer }
%struct.php_cli_server_buffer = type { ptr, ptr }

; Function Attrs: nounwind uwtable
define internal i32 @php_cli_server_client_read_request_on_body(ptr noundef %0, ptr noundef %1, i64 noundef %2) #0 {
  %4 = alloca ptr, align 8
  %5 = alloca ptr, align 8
  %6 = alloca i64, align 8
  %7 = alloca ptr, align 8
  store ptr %0, ptr %4, align 8, !tbaa !236
  store ptr %1, ptr %5, align 8, !tbaa !67
  store i64 %2, ptr %6, align 8, !tbaa !68
  call void @llvm.lifetime.start.p0(i64 8, ptr %7) #20
  %8 = load ptr, ptr %4, align 8, !tbaa !236
  %9 = getelementptr inbounds nuw %struct.php_http_parser, ptr %8, i32 0, i32 11
  %10 = load ptr, ptr %9, align 8, !tbaa !238
  store ptr %10, ptr %7, align 8, !tbaa !60
  %11 = load ptr, ptr %7, align 8, !tbaa !60
  %12 = getelementptr inbounds nuw %struct.php_cli_server_client, ptr %11, i32 0, i32 11
  %13 = getelementptr inbounds nuw %struct.php_cli_server_request, ptr %12, i32 0, i32 13
  %14 = load ptr, ptr %13, align 8, !tbaa !93
  %15 = icmp ne ptr %14, null
  br i1 %15, label %27, label %16

16:                                               ; preds = %3
  %17 = load ptr, ptr %4, align 8, !tbaa !236
  %18 = getelementptr inbounds nuw %struct.php_http_parser, ptr %17, i32 0, i32 5
  %19 = load i64, ptr %18, align 8, !tbaa !241
  %20 = call noalias ptr @__zend_malloc(i64 noundef %19) #22
  %21 = load ptr, ptr %7, align 8, !tbaa !60
  %22 = getelementptr inbounds nuw %struct.php_cli_server_client, ptr %21, i32 0, i32 11
  %23 = getelementptr inbounds nuw %struct.php_cli_server_request, ptr %22, i32 0, i32 13
  store ptr %20, ptr %23, align 8, !tbaa !93
  %24 = load ptr, ptr %7, align 8, !tbaa !60
  %25 = getelementptr inbounds nuw %struct.php_cli_server_client, ptr %24, i32 0, i32 11
  %26 = getelementptr inbounds nuw %struct.php_cli_server_request, ptr %25, i32 0, i32 14
  store i64 0, ptr %26, align 8, !tbaa !94
  br label %27

27:                                               ; preds = %16, %3
  %28 = load ptr, ptr %7, align 8, !tbaa !60
  %29 = getelementptr inbounds nuw %struct.php_cli_server_client, ptr %28, i32 0, i32 11
  %30 = getelementptr inbounds nuw %struct.php_cli_server_request, ptr %29, i32 0, i32 13
  %31 = load ptr, ptr %30, align 8, !tbaa !93
  %32 = load ptr, ptr %7, align 8, !tbaa !60
  %33 = getelementptr inbounds nuw %struct.php_cli_server_client, ptr %32, i32 0, i32 11
  %34 = getelementptr inbounds nuw %struct.php_cli_server_request, ptr %33, i32 0, i32 14
  %35 = load i64, ptr %34, align 8, !tbaa !94
  %36 = load i64, ptr %6, align 8, !tbaa !68
  %37 = add i64 %35, %36
  %38 = call ptr @__zend_realloc(ptr noundef %31, i64 noundef %37) #26
  %39 = load ptr, ptr %7, align 8, !tbaa !60
  %40 = getelementptr inbounds nuw %struct.php_cli_server_client, ptr %39, i32 0, i32 11
  %41 = getelementptr inbounds nuw %struct.php_cli_server_request, ptr %40, i32 0, i32 13
  store ptr %38, ptr %41, align 8, !tbaa !93
  %42 = load ptr, ptr %7, align 8, !tbaa !60
  %43 = getelementptr inbounds nuw %struct.php_cli_server_client, ptr %42, i32 0, i32 11
  %44 = getelementptr inbounds nuw %struct.php_cli_server_request, ptr %43, i32 0, i32 13
  %45 = load ptr, ptr %44, align 8, !tbaa !93
  %46 = load ptr, ptr %7, align 8, !tbaa !60
  %47 = getelementptr inbounds nuw %struct.php_cli_server_client, ptr %46, i32 0, i32 11
  %48 = getelementptr inbounds nuw %struct.php_cli_server_request, ptr %47, i32 0, i32 14
  %49 = load i64, ptr %48, align 8, !tbaa !94
  %50 = getelementptr inbounds nuw i8, ptr %45, i64 %49
  %51 = load ptr, ptr %5, align 8, !tbaa !67
  %52 = load i64, ptr %6, align 8, !tbaa !68
  call void @llvm.memmove.p0.p0.i64(ptr align 1 %50, ptr align 1 %51, i64 %52, i1 false)
  %53 = load i64, ptr %6, align 8, !tbaa !68
  %54 = load ptr, ptr %7, align 8, !tbaa !60
  %55 = getelementptr inbounds nuw %struct.php_cli_server_client, ptr %54, i32 0, i32 11
  %56 = getelementptr inbounds nuw %struct.php_cli_server_request, ptr %55, i32 0, i32 14
  %57 = load i64, ptr %56, align 8, !tbaa !94
  %58 = add i64 %57, %53
  store i64 %58, ptr %56, align 8, !tbaa !94
  call void @llvm.lifetime.end.p0(i64 8, ptr %7) #20
  ret i32 0
}