; Function Attrs: nounwind uwtable
define internal noundef i32 @php_cli_server_client_read_request_on_body(ptr noundef readonly captures(none) %0, ptr noundef readonly captures(none) %1, i64 noundef %2) #0 {
  %4 = getelementptr inbounds nuw i8, ptr %0, i64 24
  %5 = load ptr, ptr %4, align 8, !tbaa !206
  %6 = getelementptr inbounds nuw i8, ptr %5, i64 304
  %7 = load ptr, ptr %6, align 8, !tbaa !92
  %.not = icmp eq ptr %7, null
  br i1 %.not, label %8, label %._crit_edge

._crit_edge:                                      ; preds = %3
  %.phi.trans.insert = getelementptr inbounds nuw i8, ptr %5, i64 312
  %.pre = load i64, ptr %.phi.trans.insert, align 8, !tbaa !93
  br label %13

8:                                                ; preds = %3
  %9 = getelementptr inbounds nuw i8, ptr %0, i64 8
  %10 = load i64, ptr %9, align 8, !tbaa !212
  %11 = tail call noalias ptr @__zend_malloc(i64 noundef %10) #31
  store ptr %11, ptr %6, align 8, !tbaa !92
  %12 = getelementptr inbounds nuw i8, ptr %5, i64 312
  store i64 0, ptr %12, align 8, !tbaa !93
  br label %13

13:                                               ; preds = %._crit_edge, %8
  %14 = phi i64 [ 0, %8 ], [ %.pre, %._crit_edge ]
  %15 = phi ptr [ %11, %8 ], [ %7, %._crit_edge ]
  %16 = getelementptr inbounds nuw i8, ptr %5, i64 312
  %17 = add i64 %14, %2
  %18 = tail call ptr @__zend_realloc(ptr noundef %15, i64 noundef %17) #37
  store ptr %18, ptr %6, align 8, !tbaa !92
  %19 = load i64, ptr %16, align 8, !tbaa !93
  %20 = getelementptr inbounds nuw i8, ptr %18, i64 %19
  tail call void @llvm.memmove.p0.p0.i64(ptr align 1 %20, ptr align 1 %1, i64 %2, i1 false)
  %21 = load i64, ptr %16, align 8, !tbaa !93
  %22 = add i64 %21, %2
  store i64 %22, ptr %16, align 8, !tbaa !93
  ret i32 0
}